; Function Attrs: mustprogress uwtable
define hidden void @_ZN19OpenColorIO_v2_4dev12BuildRangeOpERNS_10OpRcPtrVecERKNS_14RangeTransformENS_18TransformDirectionE(ptr noundef nonnull align 8 dereferenceable(144) %ops, ptr noundef nonnull align 8 dereferenceable(8) %transform, i32 noundef %dir) local_unnamed_addr #3 personality ptr @__gxx_personality_v0 {
entry:
  %d = alloca %"class.std::shared_ptr", align 8
  %m = alloca %"class.std::shared_ptr.44", align 8
  %0 = tail call ptr @__dynamic_cast(ptr nonnull %transform, ptr nonnull @_ZTIN19OpenColorIO_v2_4dev14RangeTransformE, ptr nonnull @_ZTIN19OpenColorIO_v2_4dev18RangeTransformImplE, i64 0) #18
  %m_data.i = getelementptr inbounds i8, ptr %0, i64 16
  %vtable = load ptr, ptr %m_data.i, align 8
  %vfn = getelementptr inbounds i8, ptr %vtable, i64 16
  %1 = load ptr, ptr %vfn, align 8
  tail call void %1(ptr noundef nonnull align 8 dereferenceable(228) %m_data.i)
  %vtable1 = load ptr, ptr %transform, align 8
  %vfn2 = getelementptr inbounds i8, ptr %vtable1, i64 56
  %2 = load ptr, ptr %vfn2, align 8
  %call3 = tail call noundef i32 %2(ptr noundef nonnull align 8 dereferenceable(8) %transform) #18
  %cmp = icmp eq i32 %call3, 1
  br i1 %cmp, label %if.then, label %if.else

if.then:                                          ; preds = %entry
  call void @_ZNK19OpenColorIO_v2_4dev11RangeOpData5cloneEv(ptr nonnull sret(%"class.std::shared_ptr") align 8 %d, ptr noundef nonnull align 8 dereferenceable(228) %m_data.i)
  invoke void @_ZN19OpenColorIO_v2_4dev13CreateRangeOpERNS_10OpRcPtrVecERSt10shared_ptrINS_11RangeOpDataEENS_18TransformDirectionE(ptr noundef nonnull align 8 dereferenceable(144) %ops, ptr noundef nonnull align 8 dereferenceable(16) %d, i32 noundef %dir)
          to label %invoke.cont unwind label %lpad

invoke.cont:                                      ; preds = %if.then
  %_M_refcount.i.i = getelementptr inbounds i8, ptr %d, i64 8
  %3 = load ptr, ptr %_M_refcount.i.i, align 8
  %cmp.not.i.i.i = icmp eq ptr %3, null
  br i1 %cmp.not.i.i.i, label %if.end, label %if.then.i.i.i

if.then.i.i.i:                                    ; preds = %invoke.cont
  %_M_use_count.i.i.i.i = getelementptr inbounds i8, ptr %3, i64 8
  %4 = load atomic i64, ptr %_M_use_count.i.i.i.i acquire, align 8
  %cmp.i.i.i.i = icmp eq i64 %4, 4294967297
  %5 = trunc i64 %4 to i32
  br i1 %cmp.i.i.i.i, label %if.end.sink.split.sink.split, label %if.end.i.i.i.i

if.end.i.i.i.i:                                   ; preds = %if.then.i.i.i
  %6 = load i8, ptr @__libc_single_threaded, align 1
  %tobool.i.not.i.i.i.i = icmp eq i8 %6, 0
  br i1 %tobool.i.not.i.i.i.i, label %if.else.i.i.i.i.i, label %if.then.i.i.i.i.i

if.then.i.i.i.i.i:                                ; preds = %if.end.i.i.i.i
  %add.i.i.i.i.i = add nsw i32 %5, -1
  store i32 %add.i.i.i.i.i, ptr %_M_use_count.i.i.i.i, align 4
  br label %_ZN9__gnu_cxx27__exchange_and_add_dispatchEPii.exit.i.i.i.i

if.else.i.i.i.i.i:                                ; preds = %if.end.i.i.i.i
  %7 = atomicrmw volatile add ptr %_M_use_count.i.i.i.i, i32 -1 acq_rel, align 4
  br label %_ZN9__gnu_cxx27__exchange_and_add_dispatchEPii.exit.i.i.i.i

_ZN9__gnu_cxx27__exchange_and_add_dispatchEPii.exit.i.i.i.i: ; preds = %if.else.i.i.i.i.i, %if.then.i.i.i.i.i
  %retval.i.0.i.i.i.i = phi i32 [ %5, %if.then.i.i.i.i.i ], [ %7, %if.else.i.i.i.i.i ]
  %cmp6.i.i.i.i = icmp eq i32 %retval.i.0.i.i.i.i, 1
  br i1 %cmp6.i.i.i.i, label %if.then7.i.i.i.i, label %if.end

if.then7.i.i.i.i:                                 ; preds = %_ZN9__gnu_cxx27__exchange_and_add_dispatchEPii.exit.i.i.i.i
  %vtable.i.i.i.i.i.i = load ptr, ptr %3, align 8
  %vfn.i.i.i.i.i.i = getelementptr inbounds i8, ptr %vtable.i.i.i.i.i.i, i64 16
  %8 = load ptr, ptr %vfn.i.i.i.i.i.i, align 8
  call void %8(ptr noundef nonnull align 8 dereferenceable(16) %3) #18
  %_M_weak_count.i.i.i.i.i.i = getelementptr inbounds i8, ptr %3, i64 12
  %9 = load i8, ptr @__libc_single_threaded, align 1
  %tobool.i.not.i.i.i.i.i.i = icmp eq i8 %9, 0
  br i1 %tobool.i.not.i.i.i.i.i.i, label %if.else.i.i.i.i.i.i.i, label %if.then.i.i.i.i.i.i.i

if.then.i.i.i.i.i.i.i:                            ; preds = %if.then7.i.i.i.i
  %10 = load i32, ptr %_M_weak_count.i.i.i.i.i.i, align 4
  %add.i.i.i.i.i.i.i = add nsw i32 %10, -1
  store i32 %add.i.i.i.i.i.i.i, ptr %_M_weak_count.i.i.i.i.i.i, align 4
  br label %_ZN9__gnu_cxx27__exchange_and_add_dispatchEPii.exit.i.i.i.i.i.i

if.else.i.i.i.i.i.i.i:                            ; preds = %if.then7.i.i.i.i
  %11 = atomicrmw volatile add ptr %_M_weak_count.i.i.i.i.i.i, i32 -1 acq_rel, align 4
  br label %_ZN9__gnu_cxx27__exchange_and_add_dispatchEPii.exit.i.i.i.i.i.i

_ZN9__gnu_cxx27__exchange_and_add_dispatchEPii.exit.i.i.i.i.i.i: ; preds = %if.else.i.i.i.i.i.i.i, %if.then.i.i.i.i.i.i.i
  %retval.i.0.i.i.i.i.i.i = phi i32 [ %10, %if.then.i.i.i.i.i.i.i ], [ %11, %if.else.i.i.i.i.i.i.i ]
  %cmp.i.i.i.i.i.i = icmp eq i32 %retval.i.0.i.i.i.i.i.i, 1
  br i1 %cmp.i.i.i.i.i.i, label %if.end.sink.split, label %if.end

lpad:                                             ; preds = %if.then
  %12 = landingpad { ptr, i32 }
          cleanup
  call void @_ZNSt10shared_ptrIN19OpenColorIO_v2_4dev11RangeOpDataEED2Ev(ptr noundef nonnull align 8 dereferenceable(16) %d) #18
  br label %eh.resume

if.else:                                          ; preds = %entry
  call void @_ZNK19OpenColorIO_v2_4dev11RangeOpData15convertToMatrixEv(ptr nonnull sret(%"class.std::shared_ptr.44") align 8 %m, ptr noundef nonnull align 8 dereferenceable(228) %m_data.i)
  invoke void @_ZN19OpenColorIO_v2_4dev14CreateMatrixOpERNS_10OpRcPtrVecERSt10shared_ptrINS_12MatrixOpDataEENS_18TransformDirectionE(ptr noundef nonnull align 8 dereferenceable(144) %ops, ptr noundef nonnull align 8 dereferenceable(16) %m, i32 noundef %dir)
          to label %invoke.cont5 unwind label %lpad4

invoke.cont5:                                     ; preds = %if.else
  %_M_refcount.i.i7 = getelementptr inbounds i8, ptr %m, i64 8
  %13 = load ptr, ptr %_M_refcount.i.i7, align 8
  %cmp.not.i.i.i8 = icmp eq ptr %13, null
  br i1 %cmp.not.i.i.i8, label %if.end, label %if.then.i.i.i9

if.then.i.i.i9:                                   ; preds = %invoke.cont5
  %_M_use_count.i.i.i.i10 = getelementptr inbounds i8, ptr %13, i64 8
  %14 = load atomic i64, ptr %_M_use_count.i.i.i.i10 acquire, align 8
  %cmp.i.i.i.i11 = icmp eq i64 %14, 4294967297
  %15 = trunc i64 %14 to i32
  br i1 %cmp.i.i.i.i11, label %if.end.sink.split.sink.split, label %if.end.i.i.i.i12

if.end.i.i.i.i12:                                 ; preds = %if.then.i.i.i9
  %16 = load i8, ptr @__libc_single_threaded, align 1
  %tobool.i.not.i.i.i.i13 = icmp eq i8 %16, 0
  br i1 %tobool.i.not.i.i.i.i13, label %if.else.i.i.i.i.i33, label %if.then.i.i.i.i.i14

if.then.i.i.i.i.i14:                              ; preds = %if.end.i.i.i.i12
  %add.i.i.i.i.i15 = add nsw i32 %15, -1
  store i32 %add.i.i.i.i.i15, ptr %_M_use_count.i.i.i.i10, align 4
  br label %_ZN9__gnu_cxx27__exchange_and_add_dispatchEPii.exit.i.i.i.i16

if.else.i.i.i.i.i33:                              ; preds = %if.end.i.i.i.i12
  %17 = atomicrmw volatile add ptr %_M_use_count.i.i.i.i10, i32 -1 acq_rel, align 4
  br label %_ZN9__gnu_cxx27__exchange_and_add_dispatchEPii.exit.i.i.i.i16

_ZN9__gnu_cxx27__exchange_and_add_dispatchEPii.exit.i.i.i.i16: ; preds = %if.else.i.i.i.i.i33, %if.then.i.i.i.i.i14
  %retval.i.0.i.i.i.i17 = phi i32 [ %15, %if.then.i.i.i.i.i14 ], [ %17, %if.else.i.i.i.i.i33 ]
  %cmp6.i.i.i.i18 = icmp eq i32 %retval.i.0.i.i.i.i17, 1
  br i1 %cmp6.i.i.i.i18, label %if.then7.i.i.i.i19, label %if.end

if.then7.i.i.i.i19:                               ; preds = %_ZN9__gnu_cxx27__exchange_and_add_dispatchEPii.exit.i.i.i.i16
  %vtable.i.i.i.i.i.i20 = load ptr, ptr %13, align 8
  %vfn.i.i.i.i.i.i21 = getelementptr inbounds i8, ptr %vtable.i.i.i.i.i.i20, i64 16
  %18 = load ptr, ptr %vfn.i.i.i.i.i.i21, align 8
  call void %18(ptr noundef nonnull align 8 dereferenceable(16) %13) #18
  %_M_weak_count.i.i.i.i.i.i22 = getelementptr inbounds i8, ptr %13, i64 12
  %19 = load i8, ptr @__libc_single_threaded, align 1
  %tobool.i.not.i.i.i.i.i.i23 = icmp eq i8 %19, 0
  br i1 %tobool.i.not.i.i.i.i.i.i23, label %if.else.i.i.i.i.i.i.i32, label %if.then.i.i.i.i.i.i.i24

if.then.i.i.i.i.i.i.i24:                          ; preds = %if.then7.i.i.i.i19
  %20 = load i32, ptr %_M_weak_count.i.i.i.i.i.i22, align 4
  %add.i.i.i.i.i.i.i25 = add nsw i32 %20, -1
  store i32 %add.i.i.i.i.i.i.i25, ptr %_M_weak_count.i.i.i.i.i.i22, align 4
  br label %_ZN9__gnu_cxx27__exchange_and_add_dispatchEPii.exit.i.i.i.i.i.i26

if.else.i.i.i.i.i.i.i32:                          ; preds = %if.then7.i.i.i.i19
  %21 = atomicrmw volatile add ptr %_M_weak_count.i.i.i.i.i.i22, i32 -1 acq_rel, align 4
  br label %_ZN9__gnu_cxx27__exchange_and_add_dispatchEPii.exit.i.i.i.i.i.i26

_ZN9__gnu_cxx27__exchange_and_add_dispatchEPii.exit.i.i.i.i.i.i26: ; preds = %if.else.i.i.i.i.i.i.i32, %if.then.i.i.i.i.i.i.i24
  %retval.i.0.i.i.i.i.i.i27 = phi i32 [ %20, %if.then.i.i.i.i.i.i.i24 ], [ %21, %if.else.i.i.i.i.i.i.i32 ]
  %cmp.i.i.i.i.i.i28 = icmp eq i32 %retval.i.0.i.i.i.i.i.i27, 1
  br i1 %cmp.i.i.i.i.i.i28, label %if.end.sink.split, label %if.end

lpad4:                                            ; preds = %if.else
  %22 = landingpad { ptr, i32 }
          cleanup
  call void @_ZNSt10shared_ptrIN19OpenColorIO_v2_4dev12MatrixOpDataEED2Ev(ptr noundef nonnull align 8 dereferenceable(16) %m) #18
  br label %eh.resume

if.end.sink.split.sink.split:                     ; preds = %if.then.i.i.i9, %if.then.i.i.i
  %_M_use_count.i.i.i.i10.sink = phi ptr [ %_M_use_count.i.i.i.i, %if.then.i.i.i ], [ %_M_use_count.i.i.i.i10, %if.then.i.i.i9 ]
  %.sink42 = phi ptr [ %3, %if.then.i.i.i ], [ %13, %if.then.i.i.i9 ]
  store i32 0, ptr %_M_use_count.i.i.i.i10.sink, align 8
  %_M_weak_count.i.i.i.i35 = getelementptr inbounds i8, ptr %.sink42, i64 12
  store i32 0, ptr %_M_weak_count.i.i.i.i35, align 4
  %vtable.i.i.i.i36 = load ptr, ptr %.sink42, align 8
  %vfn.i.i.i.i37 = getelementptr inbounds i8, ptr %vtable.i.i.i.i36, i64 16
  %23 = load ptr, ptr %vfn.i.i.i.i37, align 8
  call void %23(ptr noundef nonnull align 8 dereferenceable(16) %.sink42) #18
  br label %if.end.sink.split

if.end.sink.split:                                ; preds = %if.end.sink.split.sink.split, %_ZN9__gnu_cxx27__exchange_and_add_dispatchEPii.exit.i.i.i.i.i.i26, %_ZN9__gnu_cxx27__exchange_and_add_dispatchEPii.exit.i.i.i.i.i.i
  %.sink39 = phi ptr [ %3, %_ZN9__gnu_cxx27__exchange_and_add_dispatchEPii.exit.i.i.i.i.i.i ], [ %13, %_ZN9__gnu_cxx27__exchange_and_add_dispatchEPii.exit.i.i.i.i.i.i26 ], [ %.sink42, %if.end.sink.split.sink.split ]
  %vtable2.i.i.i.i.i.i30 = load ptr, ptr %.sink39, align 8
  %vfn3.i.i.i.i.i.i31 = getelementptr inbounds i8, ptr %vtable2.i.i.i.i.i.i30, i64 24
  %24 = load ptr, ptr %vfn3.i.i.i.i.i.i31, align 8
  call void %24(ptr noundef nonnull align 8 dereferenceable(16) %.sink39) #18
  br label %if.end

if.end:                                           ; preds = %if.end.sink.split, %_ZN9__gnu_cxx27__exchange_and_add_dispatchEPii.exit.i.i.i.i.i.i26, %_ZN9__gnu_cxx27__exchange_and_add_dispatchEPii.exit.i.i.i.i16, %invoke.cont5, %_ZN9__gnu_cxx27__exchange_and_add_dispatchEPii.exit.i.i.i.i.i.i, %_ZN9__gnu_cxx27__exchange_and_add_dispatchEPii.exit.i.i.i.i, %invoke.cont
  ret void

eh.resume:                                        ; preds = %lpad4, %lpad
  %.pn = phi { ptr, i32 } [ %12, %lpad ], [ %22, %lpad4 ]
  resume { ptr, i32 } %.pn
}